target datalayout = "e-m:e-p270:32:32-p271:32:32-p272:64:64-i64:64-i128:128-f80:128-n8:16:32:64-S128"
target triple = "x86_64-unknown-linux-gnu"

%"class.icu_75::QuantityFormatter" = type { [8 x ptr] }
%"class.icu_75::SimpleFormatter" = type { [8 x i8], %"class.icu_75::UnicodeString" }
%"class.icu_75::UnicodeString" = type { %"class.icu_75::Replaceable", %"union.icu_75::UnicodeString::StackBufferOrFields" }
%"class.icu_75::Replaceable" = type { %"class.icu_75::UObject" }
%"class.icu_75::UObject" = type { ptr }
%"union.icu_75::UnicodeString::StackBufferOrFields" = type { %struct.anon.0, [32 x i8] }
%struct.anon.0 = type { i16, i32, i32, ptr }

; Function Attrs: mustprogress uwtable
define linkonce_odr void @_ZN6icu_7515SimpleFormatterC2ERKS0_(ptr noundef nonnull align 8 dereferenceable(72) %this, ptr noundef nonnull align 8 dereferenceable(72) %other) unnamed_addr #1 comdat align 2 {
entry:
  %this.addr = alloca ptr, align 8
  %other.addr = alloca ptr, align 8
  store ptr %this, ptr %this.addr, align 8
  store ptr %other, ptr %other.addr, align 8
  %this1 = load ptr, ptr %this.addr, align 8
  %compiledPattern = getelementptr inbounds %"class.icu_75::SimpleFormatter", ptr %this1, i32 0, i32 1
  %0 = load ptr, ptr %other.addr, align 8
  %compiledPattern2 = getelementptr inbounds %"class.icu_75::SimpleFormatter", ptr %0, i32 0, i32 1
  call void @_ZN6icu_7513UnicodeStringC1ERKS0_(ptr noundef nonnull align 8 dereferenceable(64) %compiledPattern, ptr noundef nonnull align 8 dereferenceable(64) %compiledPattern2)
  ret void
}

; Function Attrs: mustprogress uwtable
define noundef nonnull align 8 dereferenceable(64) ptr @_ZN6icu_7517QuantityFormatteraSERKS0_(ptr noundef nonnull align 8 dereferenceable(64) %this, ptr noundef nonnull align 8 dereferenceable(64) %other) #1 align 2 personality ptr @__gxx_personality_v0 {
entry:
  %retval = alloca ptr, align 8
  %this.addr = alloca ptr, align 8
  %other.addr = alloca ptr, align 8
  %i = alloca i32, align 4
  %saved-rvalue = alloca ptr, align 8
  %cleanup.cond = alloca i1, align 1
  %exn.slot = alloca ptr, align 8
  %ehselector.slot = alloca i32, align 4
  store ptr %this, ptr %this.addr, align 8
  store ptr %other, ptr %other.addr, align 8
  %this1 = load ptr, ptr %this.addr, align 8
  %0 = load ptr, ptr %other.addr, align 8
  %cmp = icmp eq ptr %this1, %0
  br i1 %cmp, label %if.then, label %if.end

if.then:                                          ; preds = %entry
  store ptr %this1, ptr %retval, align 8
  br label %return

if.end:                                           ; preds = %entry
  store i32 0, ptr %i, align 4
  br label %for.cond

for.cond:                                         ; preds = %for.inc, %if.end
  %1 = load i32, ptr %i, align 4
  %cmp2 = icmp slt i32 %1, 8
  br i1 %cmp2, label %for.body, label %for.end

for.body:                                         ; preds = %for.cond
  %formatters = getelementptr inbounds %"class.icu_75::QuantityFormatter", ptr %this1, i32 0, i32 0
  %2 = load i32, ptr %i, align 4
  %idxprom = sext i32 %2 to i64
  %arrayidx = getelementptr inbounds [8 x ptr], ptr %formatters, i64 0, i64 %idxprom
  %3 = load ptr, ptr %arrayidx, align 8
  %isnull = icmp eq ptr %3, null
  br i1 %isnull, label %delete.end, label %delete.notnull

delete.notnull:                                   ; preds = %for.body
  call void @_ZN6icu_7515SimpleFormatterD1Ev(ptr noundef nonnull align 8 dereferenceable(72) %3) #8
  call void @_ZN6icu_757UMemorydlEPv(ptr noundef %3) #8
  br label %delete.end

delete.end:                                       ; preds = %delete.notnull, %for.body
  %4 = load ptr, ptr %other.addr, align 8
  %formatters3 = getelementptr inbounds %"class.icu_75::QuantityFormatter", ptr %4, i32 0, i32 0
  %5 = load i32, ptr %i, align 4
  %idxprom4 = sext i32 %5 to i64
  %arrayidx5 = getelementptr inbounds [8 x ptr], ptr %formatters3, i64 0, i64 %idxprom4
  %6 = load ptr, ptr %arrayidx5, align 8
  %cmp6 = icmp eq ptr %6, null
  br i1 %cmp6, label %if.then7, label %if.else

if.then7:                                         ; preds = %delete.end
  %formatters8 = getelementptr inbounds %"class.icu_75::QuantityFormatter", ptr %this1, i32 0, i32 0
  %7 = load i32, ptr %i, align 4
  %idxprom9 = sext i32 %7 to i64
  %arrayidx10 = getelementptr inbounds [8 x ptr], ptr %formatters8, i64 0, i64 %idxprom9
  store ptr null, ptr %arrayidx10, align 8
  br label %if.end17

if.else:                                          ; preds = %delete.end
  %call = call noundef ptr @_ZN6icu_757UMemorynwEm(i64 noundef 72) #8
  %new.isnull = icmp eq ptr %call, null
  store i1 false, ptr %cleanup.cond, align 1
  br i1 %new.isnull, label %new.cont, label %new.notnull

new.notnull:                                      ; preds = %if.else
  store ptr %call, ptr %saved-rvalue, align 8
  store i1 true, ptr %cleanup.cond, align 1
  %8 = load ptr, ptr %other.addr, align 8
  %formatters11 = getelementptr inbounds %"class.icu_75::QuantityFormatter", ptr %8, i32 0, i32 0
  %9 = load i32, ptr %i, align 4
  %idxprom12 = sext i32 %9 to i64
  %arrayidx13 = getelementptr inbounds [8 x ptr], ptr %formatters11, i64 0, i64 %idxprom12
  %10 = load ptr, ptr %arrayidx13, align 8
  invoke void @_ZN6icu_7515SimpleFormatterC2ERKS0_(ptr noundef nonnull align 8 dereferenceable(72) %call, ptr noundef nonnull align 8 dereferenceable(72) %10)
          to label %invoke.cont unwind label %lpad

invoke.cont:                                      ; preds = %new.notnull
  br label %new.cont

new.cont:                                         ; preds = %invoke.cont, %if.else
  %11 = phi ptr [ %call, %invoke.cont ], [ null, %if.else ]
  %formatters14 = getelementptr inbounds %"class.icu_75::QuantityFormatter", ptr %this1, i32 0, i32 0
  %12 = load i32, ptr %i, align 4
  %idxprom15 = sext i32 %12 to i64
  %arrayidx16 = getelementptr inbounds [8 x ptr], ptr %formatters14, i64 0, i64 %idxprom15
  store ptr %11, ptr %arrayidx16, align 8
  br label %if.end17

lpad:                                             ; preds = %new.notnull
  %13 = landingpad { ptr, i32 }
          cleanup
  %14 = extractvalue { ptr, i32 } %13, 0
  store ptr %14, ptr %exn.slot, align 8
  %15 = extractvalue { ptr, i32 } %13, 1
  store i32 %15, ptr %ehselector.slot, align 4
  %cleanup.is_active = load i1, ptr %cleanup.cond, align 1
  br i1 %cleanup.is_active, label %cleanup.action, label %cleanup.done

cleanup.action:                                   ; preds = %lpad
  %16 = load ptr, ptr %saved-rvalue, align 8
  call void @_ZN6icu_757UMemorydlEPv(ptr noundef %16) #8
  br label %cleanup.done

cleanup.done:                                     ; preds = %cleanup.action, %lpad
  br label %eh.resume

if.end17:                                         ; preds = %new.cont, %if.then7
  br label %for.inc

for.inc:                                          ; preds = %if.end17
  %17 = load i32, ptr %i, align 4
  %inc = add nsw i32 %17, 1
  store i32 %inc, ptr %i, align 4
  br label %for.cond, !llvm.loop !7

for.end:                                          ; preds = %for.cond
  store ptr %this1, ptr %retval, align 8
  br label %return

return:                                           ; preds = %for.end, %if.then
  %18 = load ptr, ptr %retval, align 8
  ret ptr %18

eh.resume:                                        ; preds = %cleanup.done
  %exn = load ptr, ptr %exn.slot, align 8
  %sel = load i32, ptr %ehselector.slot, align 4
  %lpad.val = insertvalue { ptr, i32 } poison, ptr %exn, 0
  %lpad.val18 = insertvalue { ptr, i32 } %lpad.val, i32 %sel, 1
  resume { ptr, i32 } %lpad.val18
}