; Function Attrs: mustprogress uwtable
define noundef nonnull align 8 dereferenceable(64) ptr @_ZN6icu_7517QuantityFormatteraSERKS0_(ptr noundef nonnull returned align 8 dereferenceable(64) %this, ptr noundef nonnull readonly align 8 dereferenceable(64) %other) local_unnamed_addr #1 align 2 personality ptr @__gxx_personality_v0 {
entry:
  %cmp = icmp eq ptr %this, %other
  br i1 %cmp, label %return, label %for.body

for.body:                                         ; preds = %entry, %for.inc
  %indvars.iv = phi i64 [ %indvars.iv.next, %for.inc ], [ 0, %entry ]
  %arrayidx = getelementptr inbounds [8 x ptr], ptr %this, i64 0, i64 %indvars.iv
  %0 = load ptr, ptr %arrayidx, align 8
  %isnull = icmp eq ptr %0, null
  br i1 %isnull, label %delete.end, label %delete.notnull

delete.notnull:                                   ; preds = %for.body
  tail call void @_ZN6icu_7515SimpleFormatterD1Ev(ptr noundef nonnull align 8 dereferenceable(72) %0) #13
  tail call void @_ZN6icu_757UMemorydlEPv(ptr noundef nonnull %0) #13
  br label %delete.end

delete.end:                                       ; preds = %delete.notnull, %for.body
  %arrayidx5 = getelementptr inbounds [8 x ptr], ptr %other, i64 0, i64 %indvars.iv
  %1 = load ptr, ptr %arrayidx5, align 8
  %cmp6 = icmp eq ptr %1, null
  br i1 %cmp6, label %for.inc, label %if.else

if.else:                                          ; preds = %delete.end
  %call = tail call noundef ptr @_ZN6icu_757UMemorynwEm(i64 noundef 72) #13
  %new.isnull = icmp eq ptr %call, null
  br i1 %new.isnull, label %for.inc, label %new.notnull

new.notnull:                                      ; preds = %if.else
  %2 = load ptr, ptr %arrayidx5, align 8
  %compiledPattern.i = getelementptr inbounds i8, ptr %call, i64 8
  %compiledPattern2.i = getelementptr inbounds i8, ptr %2, i64 8
  invoke void @_ZN6icu_7513UnicodeStringC1ERKS0_(ptr noundef nonnull align 8 dereferenceable(64) %compiledPattern.i, ptr noundef nonnull align 8 dereferenceable(64) %compiledPattern2.i)
          to label %for.inc unwind label %lpad

lpad:                                             ; preds = %new.notnull
  %3 = landingpad { ptr, i32 }
          cleanup
  tail call void @_ZN6icu_757UMemorydlEPv(ptr noundef nonnull %call) #13
  resume { ptr, i32 } %3

for.inc:                                          ; preds = %new.notnull, %if.else, %delete.end
  %storemerge = phi ptr [ null, %delete.end ], [ null, %if.else ], [ %call, %new.notnull ]
  store ptr %storemerge, ptr %arrayidx, align 8
  %indvars.iv.next = add nuw nsw i64 %indvars.iv, 1
  %exitcond.not = icmp eq i64 %indvars.iv.next, 8
  br i1 %exitcond.not, label %return, label %for.body, !llvm.loop !6

return:                                           ; preds = %for.inc, %entry
  ret ptr %this
}